; Function Attrs: mustprogress uwtable
define void @_ZN7rocksdb23CFOptionsAsConfigurableERKNS_16MutableCFOptionsE(ptr noalias nocapture writeonly sret(%"class.std::unique_ptr") align 8 %agg.result, ptr noundef nonnull align 8 dereferenceable(560) %opts) local_unnamed_addr #2 personality ptr @__gxx_personality_v0 {
entry:
  %call = tail call noalias noundef nonnull dereferenceable(592) ptr @_Znwm(i64 noundef 592) #30
  invoke void @_ZN7rocksdb28ConfigurableMutableCFOptionsC2ERKNS_16MutableCFOptionsE(ptr noundef nonnull align 8 dereferenceable(592) %call, ptr noundef nonnull align 8 dereferenceable(560) %opts)
          to label %invoke.cont unwind label %lpad

invoke.cont:                                      ; preds = %entry
  store ptr %call, ptr %agg.result, align 8
  ret void

lpad:                                             ; preds = %entry
  %0 = landingpad { ptr, i32 }
          cleanup
  tail call void @_ZdlPv(ptr noundef nonnull %call) #29
  resume { ptr, i32 } %0
}